target datalayout = "e-m:e-p270:32:32-p271:32:32-p272:64:64-i64:64-i128:128-f80:128-n8:16:32:64-S128"
target triple = "x86_64-pc-linux-gnu"

%struct.filehash_hash = type { i64, i32, i32, i32, ptr, ptr }
%struct.file_entry_t = type { i32, ptr, i8, i8, i32, i64, ptr, %struct.datapagemap, i8, i32, i64, ptr, i32 }
%struct.datapagemap = type { ptr, i32 }

@.str.5 = private unnamed_addr constant [21 x i8] c"hash table too large\00", align 1

; Function Attrs: inlinehint nounwind uwtable
define internal i32 @pg_leftmost_one_pos64(i64 noundef %0) #1 {
  %2 = alloca i64, align 8
  store i64 %0, ptr %2, align 8
  %3 = load i64, ptr %2, align 8
  %4 = call i64 @llvm.ctlz.i64(i64 %3, i1 true)
  %5 = trunc i64 %4 to i32
  %6 = sub i32 63, %5
  ret i32 %6
}

; Function Attrs: inlinehint nounwind uwtable
define internal i64 @pg_nextpower2_64(i64 noundef %0) #1 {
  %2 = alloca i64, align 8
  %3 = alloca i64, align 8
  store i64 %0, ptr %3, align 8
  %4 = load i64, ptr %3, align 8
  %5 = load i64, ptr %3, align 8
  %6 = sub i64 %5, 1
  %7 = and i64 %4, %6
  %8 = icmp eq i64 %7, 0
  br i1 %8, label %9, label %11

9:                                                ; preds = %1
  %10 = load i64, ptr %3, align 8
  store i64 %10, ptr %2, align 8
  br label %17

11:                                               ; preds = %1
  %12 = load i64, ptr %3, align 8
  %13 = call i32 @pg_leftmost_one_pos64(i64 noundef %12)
  %14 = add i32 %13, 1
  %15 = zext i32 %14 to i64
  %16 = shl i64 1, %15
  store i64 %16, ptr %2, align 8
  br label %17

17:                                               ; preds = %11, %9
  %18 = load i64, ptr %2, align 8
  ret i64 %18
}

; Function Attrs: inlinehint nounwind uwtable
define internal void @filehash_free(ptr noundef %0, ptr noundef %1) #1 {
  %3 = alloca ptr, align 8
  %4 = alloca ptr, align 8
  store ptr %0, ptr %3, align 8
  store ptr %1, ptr %4, align 8
  %5 = load ptr, ptr %4, align 8
  call void @pfree(ptr noundef %5)
  ret void
}

; Function Attrs: inlinehint nounwind uwtable
define internal i32 @filehash_next(ptr noundef %0, i32 noundef %1, i32 noundef %2) #1 {
  %4 = alloca ptr, align 8
  %5 = alloca i32, align 4
  %6 = alloca i32, align 4
  store ptr %0, ptr %4, align 8
  store i32 %1, ptr %5, align 4
  store i32 %2, ptr %6, align 4
  %7 = load i32, ptr %5, align 4
  %8 = add i32 %7, 1
  %9 = load ptr, ptr %4, align 8
  %10 = getelementptr inbounds nuw %struct.filehash_hash, ptr %9, i32 0, i32 2
  %11 = load i32, ptr %10, align 4
  %12 = and i32 %8, %11
  store i32 %12, ptr %5, align 4
  %13 = load i32, ptr %5, align 4
  ret i32 %13
}

; Function Attrs: inlinehint nounwind uwtable
define internal i32 @filehash_initial_bucket(ptr noundef %0, i32 noundef %1) #1 {
  %3 = alloca ptr, align 8
  %4 = alloca i32, align 4
  store ptr %0, ptr %3, align 8
  store i32 %1, ptr %4, align 4
  %5 = load i32, ptr %4, align 4
  %6 = load ptr, ptr %3, align 8
  %7 = getelementptr inbounds nuw %struct.filehash_hash, ptr %6, i32 0, i32 2
  %8 = load i32, ptr %7, align 4
  %9 = and i32 %5, %8
  ret i32 %9
}

; Function Attrs: inlinehint nounwind uwtable
define internal i32 @filehash_entry_hash(ptr noundef %0, ptr noundef %1) #1 {
  %3 = alloca ptr, align 8
  %4 = alloca ptr, align 8
  store ptr %0, ptr %3, align 8
  store ptr %1, ptr %4, align 8
  %5 = load ptr, ptr %4, align 8
  %6 = getelementptr inbounds nuw %struct.file_entry_t, ptr %5, i32 0, i32 1
  %7 = load ptr, ptr %6, align 8
  %8 = call i32 @hash_string(ptr noundef %7)
  ret i32 %8
}

; Function Attrs: inlinehint nounwind uwtable
define internal void @filehash_update_parameters(ptr noundef %0, i64 noundef %1) #1 {
  %3 = alloca ptr, align 8
  %4 = alloca i64, align 8
  %5 = alloca i64, align 8
  store ptr %0, ptr %3, align 8
  store i64 %1, ptr %4, align 8
  call void @llvm.lifetime.start.p0(i64 8, ptr %5) #11
  %6 = load i64, ptr %4, align 8
  %7 = call i64 @filehash_compute_size(i64 noundef %6)
  store i64 %7, ptr %5, align 8
  %8 = load i64, ptr %5, align 8
  %9 = load ptr, ptr %3, align 8
  %10 = getelementptr inbounds nuw %struct.filehash_hash, ptr %9, i32 0, i32 0
  store i64 %8, ptr %10, align 8
  %11 = load i64, ptr %5, align 8
  %12 = sub i64 %11, 1
  %13 = trunc i64 %12 to i32
  %14 = load ptr, ptr %3, align 8
  %15 = getelementptr inbounds nuw %struct.filehash_hash, ptr %14, i32 0, i32 2
  store i32 %13, ptr %15, align 4
  %16 = load ptr, ptr %3, align 8
  %17 = getelementptr inbounds nuw %struct.filehash_hash, ptr %16, i32 0, i32 0
  %18 = load i64, ptr %17, align 8
  %19 = icmp eq i64 %18, 4294967296
  br i1 %19, label %20, label %29

20:                                               ; preds = %2
  %21 = load ptr, ptr %3, align 8
  %22 = getelementptr inbounds nuw %struct.filehash_hash, ptr %21, i32 0, i32 0
  %23 = load i64, ptr %22, align 8
  %24 = uitofp i64 %23 to double
  %25 = fmul double %24, 0x3FEF5C28F5C28F5C
  %26 = fptoui double %25 to i32
  %27 = load ptr, ptr %3, align 8
  %28 = getelementptr inbounds nuw %struct.filehash_hash, ptr %27, i32 0, i32 3
  store i32 %26, ptr %28, align 8
  br label %38

29:                                               ; preds = %2
  %30 = load ptr, ptr %3, align 8
  %31 = getelementptr inbounds nuw %struct.filehash_hash, ptr %30, i32 0, i32 0
  %32 = load i64, ptr %31, align 8
  %33 = uitofp i64 %32 to double
  %34 = fmul double %33, 9.000000e-01
  %35 = fptoui double %34 to i32
  %36 = load ptr, ptr %3, align 8
  %37 = getelementptr inbounds nuw %struct.filehash_hash, ptr %36, i32 0, i32 3
  store i32 %35, ptr %37, align 8
  br label %38

38:                                               ; preds = %29, %20
  call void @llvm.lifetime.end.p0(i64 8, ptr %5) #11
  ret void
}

; Function Attrs: inlinehint nounwind uwtable
define internal ptr @filehash_allocate(ptr noundef %0, i64 noundef %1) #1 {
  %3 = alloca ptr, align 8
  %4 = alloca i64, align 8
  store ptr %0, ptr %3, align 8
  store i64 %1, ptr %4, align 8
  %5 = load i64, ptr %4, align 8
  %6 = call ptr @pg_malloc0(i64 noundef %5)
  ret ptr %6
}

; Function Attrs: inlinehint nounwind uwtable
define internal i64 @filehash_compute_size(i64 noundef %0) #1 {
  %2 = alloca i64, align 8
  %3 = alloca i64, align 8
  store i64 %0, ptr %2, align 8
  call void @llvm.lifetime.start.p0(i64 8, ptr %3) #11
  %4 = load i64, ptr %2, align 8
  %5 = icmp ugt i64 %4, 2
  br i1 %5, label %6, label %8

6:                                                ; preds = %1
  %7 = load i64, ptr %2, align 8
  br label %9

8:                                                ; preds = %1
  br label %9

9:                                                ; preds = %8, %6
  %10 = phi i64 [ %7, %6 ], [ 2, %8 ]
  store i64 %10, ptr %3, align 8
  %11 = load i64, ptr %3, align 8
  %12 = call i64 @pg_nextpower2_64(i64 noundef %11)
  store i64 %12, ptr %3, align 8
  %13 = load i64, ptr %3, align 8
  %14 = mul i64 88, %13
  %15 = icmp uge i64 %14, 9223372036854775807
  %16 = zext i1 %15 to i32
  %17 = icmp ne i32 %16, 0
  %18 = zext i1 %17 to i32
  %19 = sext i32 %18 to i64
  %20 = call i64 @llvm.expect.i64(i64 %19, i64 0)
  %21 = icmp ne i64 %20, 0
  br i1 %21, label %22, label %26

22:                                               ; preds = %9
  br label %23

23:                                               ; preds = %22
  call void (i32, i32, ptr, ...) @pg_log_generic(i32 noundef 4, i32 noundef 0, ptr noundef @.str.5)
  call void @exit(i32 noundef 1) #13
  unreachable

24:                                               ; No predecessors!
  br label %25

25:                                               ; preds = %24
  br label %26

26:                                               ; preds = %25, %9
  %27 = load i64, ptr %3, align 8
  call void @llvm.lifetime.end.p0(i64 8, ptr %3) #11
  ret i64 %27
}

; Function Attrs: inlinehint nounwind uwtable
define internal void @filehash_grow(ptr noundef %0, i64 noundef %1) #1 {
  %3 = alloca ptr, align 8
  %4 = alloca i64, align 8
  %5 = alloca i64, align 8
  %6 = alloca ptr, align 8
  %7 = alloca ptr, align 8
  %8 = alloca i32, align 4
  %9 = alloca i32, align 4
  %10 = alloca i32, align 4
  %11 = alloca ptr, align 8
  %12 = alloca i32, align 4
  %13 = alloca i32, align 4
  %14 = alloca i32, align 4
  %15 = alloca ptr, align 8
  %16 = alloca i32, align 4
  %17 = alloca i32, align 4
  %18 = alloca i32, align 4
  %19 = alloca ptr, align 8
  store ptr %0, ptr %3, align 8
  store i64 %1, ptr %4, align 8
  call void @llvm.lifetime.start.p0(i64 8, ptr %5) #11
  %20 = load ptr, ptr %3, align 8
  %21 = getelementptr inbounds nuw %struct.filehash_hash, ptr %20, i32 0, i32 0
  %22 = load i64, ptr %21, align 8
  store i64 %22, ptr %5, align 8
  call void @llvm.lifetime.start.p0(i64 8, ptr %6) #11
  %23 = load ptr, ptr %3, align 8
  %24 = getelementptr inbounds nuw %struct.filehash_hash, ptr %23, i32 0, i32 4
  %25 = load ptr, ptr %24, align 8
  store ptr %25, ptr %6, align 8
  call void @llvm.lifetime.start.p0(i64 8, ptr %7) #11
  call void @llvm.lifetime.start.p0(i64 4, ptr %8) #11
  call void @llvm.lifetime.start.p0(i64 4, ptr %9) #11
  store i32 0, ptr %9, align 4
  call void @llvm.lifetime.start.p0(i64 4, ptr %10) #11
  %26 = load i64, ptr %4, align 8
  %27 = call i64 @filehash_compute_size(i64 noundef %26)
  store i64 %27, ptr %4, align 8
  %28 = load ptr, ptr %3, align 8
  %29 = load i64, ptr %4, align 8
  %30 = mul i64 88, %29
  %31 = call ptr @filehash_allocate(ptr noundef %28, i64 noundef %30)
  %32 = load ptr, ptr %3, align 8
  %33 = getelementptr inbounds nuw %struct.filehash_hash, ptr %32, i32 0, i32 4
  store ptr %31, ptr %33, align 8
  %34 = load ptr, ptr %3, align 8
  %35 = load i64, ptr %4, align 8
  call void @filehash_update_parameters(ptr noundef %34, i64 noundef %35)
  %36 = load ptr, ptr %3, align 8
  %37 = getelementptr inbounds nuw %struct.filehash_hash, ptr %36, i32 0, i32 4
  %38 = load ptr, ptr %37, align 8
  store ptr %38, ptr %7, align 8
  store i32 0, ptr %8, align 4
  br label %39

39:                                               ; preds = %71, %2
  %40 = load i32, ptr %8, align 4
  %41 = zext i32 %40 to i64
  %42 = load i64, ptr %5, align 8
  %43 = icmp ult i64 %41, %42
  br i1 %43, label %44, label %74

44:                                               ; preds = %39
  call void @llvm.lifetime.start.p0(i64 8, ptr %11) #11
  %45 = load ptr, ptr %6, align 8
  %46 = load i32, ptr %8, align 4
  %47 = zext i32 %46 to i64
  %48 = getelementptr inbounds nuw %struct.file_entry_t, ptr %45, i64 %47
  store ptr %48, ptr %11, align 8
  call void @llvm.lifetime.start.p0(i64 4, ptr %12) #11
  call void @llvm.lifetime.start.p0(i64 4, ptr %13) #11
  %49 = load ptr, ptr %11, align 8
  %50 = getelementptr inbounds nuw %struct.file_entry_t, ptr %49, i32 0, i32 0
  %51 = load i32, ptr %50, align 8
  %52 = icmp ne i32 %51, 1
  br i1 %52, label %53, label %55

53:                                               ; preds = %44
  %54 = load i32, ptr %8, align 4
  store i32 %54, ptr %9, align 4
  store i32 2, ptr %14, align 4
  br label %68

55:                                               ; preds = %44
  %56 = load ptr, ptr %3, align 8
  %57 = load ptr, ptr %11, align 8
  %58 = call i32 @filehash_entry_hash(ptr noundef %56, ptr noundef %57)
  store i32 %58, ptr %12, align 4
  %59 = load ptr, ptr %3, align 8
  %60 = load i32, ptr %12, align 4
  %61 = call i32 @filehash_initial_bucket(ptr noundef %59, i32 noundef %60)
  store i32 %61, ptr %13, align 4
  %62 = load i32, ptr %13, align 4
  %63 = load i32, ptr %8, align 4
  %64 = icmp eq i32 %62, %63
  br i1 %64, label %65, label %67

65:                                               ; preds = %55
  %66 = load i32, ptr %8, align 4
  store i32 %66, ptr %9, align 4
  store i32 2, ptr %14, align 4
  br label %68

67:                                               ; preds = %55
  store i32 0, ptr %14, align 4
  br label %68

68:                                               ; preds = %67, %65, %53
  call void @llvm.lifetime.end.p0(i64 4, ptr %13) #11
  call void @llvm.lifetime.end.p0(i64 4, ptr %12) #11
  call void @llvm.lifetime.end.p0(i64 8, ptr %11) #11
  %69 = load i32, ptr %14, align 4
  switch i32 %69, label %132 [
    i32 0, label %70
    i32 2, label %74
  ]

70:                                               ; preds = %68
  br label %71

71:                                               ; preds = %70
  %72 = load i32, ptr %8, align 4
  %73 = add i32 %72, 1
  store i32 %73, ptr %8, align 4
  br label %39, !llvm.loop !20

74:                                               ; preds = %68, %39
  %75 = load i32, ptr %9, align 4
  store i32 %75, ptr %10, align 4
  store i32 0, ptr %8, align 4
  br label %76

76:                                               ; preds = %126, %74
  %77 = load i32, ptr %8, align 4
  %78 = zext i32 %77 to i64
  %79 = load i64, ptr %5, align 8
  %80 = icmp ult i64 %78, %79
  br i1 %80, label %81, label %129

81:                                               ; preds = %76
  call void @llvm.lifetime.start.p0(i64 8, ptr %15) #11
  %82 = load ptr, ptr %6, align 8
  %83 = load i32, ptr %10, align 4
  %84 = zext i32 %83 to i64
  %85 = getelementptr inbounds nuw %struct.file_entry_t, ptr %82, i64 %84
  store ptr %85, ptr %15, align 8
  %86 = load ptr, ptr %15, align 8
  %87 = getelementptr inbounds nuw %struct.file_entry_t, ptr %86, i32 0, i32 0
  %88 = load i32, ptr %87, align 8
  %89 = icmp eq i32 %88, 1
  br i1 %89, label %90, label %117

90:                                               ; preds = %81
  call void @llvm.lifetime.start.p0(i64 4, ptr %16) #11
  call void @llvm.lifetime.start.p0(i64 4, ptr %17) #11
  call void @llvm.lifetime.start.p0(i64 4, ptr %18) #11
  call void @llvm.lifetime.start.p0(i64 8, ptr %19) #11
  %91 = load ptr, ptr %3, align 8
  %92 = load ptr, ptr %15, align 8
  %93 = call i32 @filehash_entry_hash(ptr noundef %91, ptr noundef %92)
  store i32 %93, ptr %16, align 4
  %94 = load ptr, ptr %3, align 8
  %95 = load i32, ptr %16, align 4
  %96 = call i32 @filehash_initial_bucket(ptr noundef %94, i32 noundef %95)
  store i32 %96, ptr %17, align 4
  %97 = load i32, ptr %17, align 4
  store i32 %97, ptr %18, align 4
  br label %98

98:                                               ; preds = %109, %90
  br label %99

99:                                               ; preds = %98
  %100 = load ptr, ptr %7, align 8
  %101 = load i32, ptr %18, align 4
  %102 = zext i32 %101 to i64
  %103 = getelementptr inbounds nuw %struct.file_entry_t, ptr %100, i64 %102
  store ptr %103, ptr %19, align 8
  %104 = load ptr, ptr %19, align 8
  %105 = getelementptr inbounds nuw %struct.file_entry_t, ptr %104, i32 0, i32 0
  %106 = load i32, ptr %105, align 8
  %107 = icmp eq i32 %106, 0
  br i1 %107, label %108, label %109

108:                                              ; preds = %99
  br label %114

109:                                              ; preds = %99
  %110 = load ptr, ptr %3, align 8
  %111 = load i32, ptr %18, align 4
  %112 = load i32, ptr %17, align 4
  %113 = call i32 @filehash_next(ptr noundef %110, i32 noundef %111, i32 noundef %112)
  store i32 %113, ptr %18, align 4
  br label %98

114:                                              ; preds = %108
  %115 = load ptr, ptr %19, align 8
  %116 = load ptr, ptr %15, align 8
  call void @llvm.memcpy.p0.p0.i64(ptr align 8 %115, ptr align 8 %116, i64 88, i1 false)
  call void @llvm.lifetime.end.p0(i64 8, ptr %19) #11
  call void @llvm.lifetime.end.p0(i64 4, ptr %18) #11
  call void @llvm.lifetime.end.p0(i64 4, ptr %17) #11
  call void @llvm.lifetime.end.p0(i64 4, ptr %16) #11
  br label %117

117:                                              ; preds = %114, %81
  %118 = load i32, ptr %10, align 4
  %119 = add i32 %118, 1
  store i32 %119, ptr %10, align 4
  %120 = load i32, ptr %10, align 4
  %121 = zext i32 %120 to i64
  %122 = load i64, ptr %5, align 8
  %123 = icmp uge i64 %121, %122
  br i1 %123, label %124, label %125

124:                                              ; preds = %117
  store i32 0, ptr %10, align 4
  br label %125

125:                                              ; preds = %124, %117
  call void @llvm.lifetime.end.p0(i64 8, ptr %15) #11
  br label %126

126:                                              ; preds = %125
  %127 = load i32, ptr %8, align 4
  %128 = add i32 %127, 1
  store i32 %128, ptr %8, align 4
  br label %76, !llvm.loop !21

129:                                              ; preds = %76
  %130 = load ptr, ptr %3, align 8
  %131 = load ptr, ptr %6, align 8
  call void @filehash_free(ptr noundef %130, ptr noundef %131)
  call void @llvm.lifetime.end.p0(i64 4, ptr %10) #11
  call void @llvm.lifetime.end.p0(i64 4, ptr %9) #11
  call void @llvm.lifetime.end.p0(i64 4, ptr %8) #11
  call void @llvm.lifetime.end.p0(i64 8, ptr %7) #11
  call void @llvm.lifetime.end.p0(i64 8, ptr %6) #11
  call void @llvm.lifetime.end.p0(i64 8, ptr %5) #11
  ret void

132:                                              ; preds = %68
  unreachable
}