; Function Attrs: inlinehint nounwind uwtable
define internal fastcc void @filehash_grow(ptr noundef captures(none) %0, i64 noundef %1) unnamed_addr #11 {
  %3 = load i64, ptr %0, align 8
  %4 = getelementptr inbounds nuw i8, ptr %0, i64 24
  %5 = load ptr, ptr %4, align 8
  %6 = tail call i64 @llvm.umax.i64(i64 %1, i64 2)
  %7 = tail call range(i64 1, 65) i64 @llvm.ctpop.i64(i64 %6)
  %8 = icmp samesign ult i64 %7, 2
  %9 = tail call range(i64 0, 65) i64 @llvm.ctlz.i64(i64 %6, i1 true)
  %10 = sub nuw nsw i64 64, %9
  %11 = shl nuw i64 1, %10
  %.0.i.i = select i1 %8, i64 %6, i64 %11
  %12 = mul i64 %.0.i.i, 88
  %13 = icmp ugt i64 %12, 9223372036854775806
  br i1 %13, label %14, label %filehash_compute_size.exit, !prof !5

14:                                               ; preds = %2
  tail call void (i32, i32, ptr, ...) @pg_log_generic(i32 noundef 4, i32 noundef 0, ptr noundef nonnull @.str.5) #13
  tail call void @exit(i32 noundef 1) #14
  unreachable

filehash_compute_size.exit:                       ; preds = %2
  %15 = tail call ptr @pg_malloc0(i64 noundef %12) #13
  store ptr %15, ptr %4, align 8
  %16 = tail call range(i64 1, 65) i64 @llvm.ctpop.i64(i64 %.0.i.i)
  %17 = icmp samesign ult i64 %16, 2
  %18 = tail call range(i64 0, 65) i64 @llvm.ctlz.i64(i64 %.0.i.i, i1 true)
  %19 = sub nuw nsw i64 64, %18
  %20 = shl nuw i64 1, %19
  %.0.i.i.i = select i1 %17, i64 %.0.i.i, i64 %20
  %21 = mul i64 %.0.i.i.i, 88
  %22 = icmp ugt i64 %21, 9223372036854775806
  br i1 %22, label %23, label %filehash_update_parameters.exit, !prof !5

23:                                               ; preds = %filehash_compute_size.exit
  tail call void (i32, i32, ptr, ...) @pg_log_generic(i32 noundef 4, i32 noundef 0, ptr noundef nonnull @.str.5) #13
  tail call void @exit(i32 noundef 1) #14
  unreachable

filehash_update_parameters.exit:                  ; preds = %filehash_compute_size.exit
  store i64 %.0.i.i.i, ptr %0, align 8
  %24 = trunc i64 %.0.i.i.i to i32
  %25 = add i32 %24, -1
  %26 = getelementptr inbounds nuw i8, ptr %0, i64 12
  store i32 %25, ptr %26, align 4
  %27 = icmp eq i64 %.0.i.i.i, 4294967296
  %28 = uitofp i64 %.0.i.i.i to double
  %29 = fmul double %28, 9.000000e-01
  %30 = fptoui double %29 to i32
  %.sink.i = select i1 %27, i32 -85899346, i32 %30
  %31 = getelementptr inbounds nuw i8, ptr %0, i64 16
  store i32 %.sink.i, ptr %31, align 8
  %.not71 = icmp eq i64 %3, 0
  br i1 %.not71, label %._crit_edge, label %.lr.ph

.lr.ph:                                           ; preds = %filehash_update_parameters.exit, %40
  %32 = phi i64 [ %42, %40 ], [ 0, %filehash_update_parameters.exit ]
  %.063 = phi i32 [ %41, %40 ], [ 0, %filehash_update_parameters.exit ]
  %33 = getelementptr inbounds nuw %struct.file_entry_t, ptr %5, i64 %32
  %34 = load i32, ptr %33, align 8
  %.not = icmp eq i32 %34, 1
  br i1 %.not, label %35, label %.lr.ph70.preheader

35:                                               ; preds = %.lr.ph
  %36 = getelementptr i8, ptr %33, i64 8
  %.val = load ptr, ptr %36, align 8
  %37 = tail call fastcc i32 @hash_string(ptr noundef readonly %.val)
  %38 = and i32 %37, %25
  %39 = icmp eq i32 %38, %.063
  br i1 %39, label %.lr.ph70.preheader, label %40

40:                                               ; preds = %35
  %41 = add i32 %.063, 1
  %42 = zext i32 %41 to i64
  %43 = icmp ugt i64 %3, %42
  br i1 %43, label %.lr.ph, label %.lr.ph70.preheader, !llvm.loop !23

.lr.ph70.preheader:                               ; preds = %40, %.lr.ph, %35
  %.05168.ph = phi i32 [ %.063, %35 ], [ %.063, %.lr.ph ], [ 0, %40 ]
  br label %.lr.ph70

.lr.ph70:                                         ; preds = %.lr.ph70.preheader, %58
  %.169 = phi i32 [ %61, %58 ], [ 0, %.lr.ph70.preheader ]
  %.05168 = phi i32 [ %spec.store.select, %58 ], [ %.05168.ph, %.lr.ph70.preheader ]
  %44 = zext i32 %.05168 to i64
  %45 = getelementptr inbounds nuw %struct.file_entry_t, ptr %5, i64 %44
  %46 = load i32, ptr %45, align 8
  %47 = icmp eq i32 %46, 1
  br i1 %47, label %48, label %58

48:                                               ; preds = %.lr.ph70
  %49 = getelementptr i8, ptr %45, i64 8
  %.val56 = load ptr, ptr %49, align 8
  %50 = tail call fastcc i32 @hash_string(ptr noundef readonly %.val56)
  %.val58 = load i32, ptr %26, align 4
  br label %51

51:                                               ; preds = %51, %48
  %.pn = phi i32 [ %50, %48 ], [ %56, %51 ]
  %.048 = and i32 %.pn, %.val58
  %52 = zext i32 %.048 to i64
  %53 = getelementptr inbounds nuw %struct.file_entry_t, ptr %15, i64 %52
  %54 = load i32, ptr %53, align 8
  %55 = icmp eq i32 %54, 0
  %56 = add i32 %.048, 1
  br i1 %55, label %57, label %51

57:                                               ; preds = %51
  tail call void @llvm.memcpy.p0.p0.i64(ptr noundef nonnull align 8 dereferenceable(88) %53, ptr noundef nonnull align 8 dereferenceable(88) %45, i64 88, i1 false)
  br label %58

58:                                               ; preds = %57, %.lr.ph70
  %59 = add i32 %.05168, 1
  %60 = zext i32 %59 to i64
  %.not55 = icmp ugt i64 %3, %60
  %spec.store.select = select i1 %.not55, i32 %59, i32 0
  %61 = add i32 %.169, 1
  %62 = zext i32 %61 to i64
  %63 = icmp ugt i64 %3, %62
  br i1 %63, label %.lr.ph70, label %._crit_edge, !llvm.loop !24

._crit_edge:                                      ; preds = %58, %filehash_update_parameters.exit
  tail call void @pfree(ptr noundef %5) #13
  ret void
}